target datalayout = "e-m:e-p270:32:32-p271:32:32-p272:64:64-i64:64-i128:128-f80:128-n8:16:32:64-S128"
target triple = "x86_64-pc-linux-gnu"

%struct.jpeg_compress_struct = type { ptr, ptr, ptr, ptr, i32, i32, ptr, i32, i32, i32, i32, double, i32, i32, i32, ptr, [4 x ptr], [4 x ptr], [4 x ptr], [16 x i8], [16 x i8], [16 x i8], i32, ptr, i32, i32, i32, i32, i32, i32, i32, i32, i32, i8, i8, i8, i16, i16, i32, i32, i32, i32, i32, i32, i32, [4 x ptr], i32, i32, i32, [10 x i32], i32, i32, i32, i32, ptr, ptr, ptr, ptr, ptr, ptr, ptr, ptr, ptr, ptr, i32 }
%struct.arith_entropy_encoder = type { %struct.jpeg_entropy_encoder, i64, i64, i64, i64, i32, i32, [4 x i32], [4 x i32], i32, i32, [16 x ptr], [16 x ptr], [4 x i8] }
%struct.jpeg_entropy_encoder = type { ptr, ptr, ptr, ptr }

; Function Attrs: nounwind uwtable
define internal i32 @encode_mcu_DC_refine(ptr noundef %0, ptr noundef %1) #0 {
  %3 = alloca ptr, align 8
  %4 = alloca ptr, align 8
  %5 = alloca ptr, align 8
  %6 = alloca ptr, align 8
  %7 = alloca i32, align 4
  %8 = alloca i32, align 4
  store ptr %0, ptr %3, align 8, !tbaa !3
  store ptr %1, ptr %4, align 8, !tbaa !71
  call void @llvm.lifetime.start.p0(i64 8, ptr %5) #3
  %9 = load ptr, ptr %3, align 8, !tbaa !3
  %10 = getelementptr inbounds nuw %struct.jpeg_compress_struct, ptr %9, i32 0, i32 62
  %11 = load ptr, ptr %10, align 8, !tbaa !30
  store ptr %11, ptr %5, align 8, !tbaa !29
  call void @llvm.lifetime.start.p0(i64 8, ptr %6) #3
  call void @llvm.lifetime.start.p0(i64 4, ptr %7) #3
  call void @llvm.lifetime.start.p0(i64 4, ptr %8) #3
  %12 = load ptr, ptr %3, align 8, !tbaa !3
  %13 = getelementptr inbounds nuw %struct.jpeg_compress_struct, ptr %12, i32 0, i32 30
  %14 = load i32, ptr %13, align 8, !tbaa !62
  %15 = icmp ne i32 %14, 0
  br i1 %15, label %16, label %44

16:                                               ; preds = %2
  %17 = load ptr, ptr %5, align 8, !tbaa !29
  %18 = getelementptr inbounds nuw %struct.arith_entropy_encoder, ptr %17, i32 0, i32 9
  %19 = load i32, ptr %18, align 8, !tbaa !63
  %20 = icmp eq i32 %19, 0
  br i1 %20, label %21, label %39

21:                                               ; preds = %16
  %22 = load ptr, ptr %3, align 8, !tbaa !3
  %23 = load ptr, ptr %5, align 8, !tbaa !29
  %24 = getelementptr inbounds nuw %struct.arith_entropy_encoder, ptr %23, i32 0, i32 10
  %25 = load i32, ptr %24, align 4, !tbaa !64
  call void @emit_restart(ptr noundef %22, i32 noundef %25)
  %26 = load ptr, ptr %3, align 8, !tbaa !3
  %27 = getelementptr inbounds nuw %struct.jpeg_compress_struct, ptr %26, i32 0, i32 30
  %28 = load i32, ptr %27, align 8, !tbaa !62
  %29 = load ptr, ptr %5, align 8, !tbaa !29
  %30 = getelementptr inbounds nuw %struct.arith_entropy_encoder, ptr %29, i32 0, i32 9
  store i32 %28, ptr %30, align 8, !tbaa !63
  %31 = load ptr, ptr %5, align 8, !tbaa !29
  %32 = getelementptr inbounds nuw %struct.arith_entropy_encoder, ptr %31, i32 0, i32 10
  %33 = load i32, ptr %32, align 4, !tbaa !64
  %34 = add nsw i32 %33, 1
  store i32 %34, ptr %32, align 4, !tbaa !64
  %35 = load ptr, ptr %5, align 8, !tbaa !29
  %36 = getelementptr inbounds nuw %struct.arith_entropy_encoder, ptr %35, i32 0, i32 10
  %37 = load i32, ptr %36, align 4, !tbaa !64
  %38 = and i32 %37, 7
  store i32 %38, ptr %36, align 4, !tbaa !64
  br label %39

39:                                               ; preds = %21, %16
  %40 = load ptr, ptr %5, align 8, !tbaa !29
  %41 = getelementptr inbounds nuw %struct.arith_entropy_encoder, ptr %40, i32 0, i32 9
  %42 = load i32, ptr %41, align 8, !tbaa !63
  %43 = add i32 %42, -1
  store i32 %43, ptr %41, align 8, !tbaa !63
  br label %44

44:                                               ; preds = %39, %2
  %45 = load ptr, ptr %5, align 8, !tbaa !29
  %46 = getelementptr inbounds nuw %struct.arith_entropy_encoder, ptr %45, i32 0, i32 13
  %47 = getelementptr inbounds [4 x i8], ptr %46, i64 0, i64 0
  store ptr %47, ptr %6, align 8, !tbaa !36
  %48 = load ptr, ptr %3, align 8, !tbaa !3
  %49 = getelementptr inbounds nuw %struct.jpeg_compress_struct, ptr %48, i32 0, i32 53
  %50 = load i32, ptr %49, align 8, !tbaa !77
  store i32 %50, ptr %7, align 4, !tbaa !35
  store i32 0, ptr %8, align 4, !tbaa !35
  br label %51

51:                                               ; preds = %72, %44
  %52 = load i32, ptr %8, align 4, !tbaa !35
  %53 = load ptr, ptr %3, align 8, !tbaa !3
  %54 = getelementptr inbounds nuw %struct.jpeg_compress_struct, ptr %53, i32 0, i32 48
  %55 = load i32, ptr %54, align 8, !tbaa !73
  %56 = icmp slt i32 %52, %55
  br i1 %56, label %57, label %75

57:                                               ; preds = %51
  %58 = load ptr, ptr %3, align 8, !tbaa !3
  %59 = load ptr, ptr %6, align 8, !tbaa !36
  %60 = load ptr, ptr %4, align 8, !tbaa !71
  %61 = load i32, ptr %8, align 4, !tbaa !35
  %62 = sext i32 %61 to i64
  %63 = getelementptr inbounds ptr, ptr %60, i64 %62
  %64 = load ptr, ptr %63, align 8, !tbaa !74
  %65 = getelementptr inbounds [64 x i16], ptr %64, i64 0
  %66 = getelementptr inbounds [64 x i16], ptr %65, i64 0, i64 0
  %67 = load i16, ptr %66, align 2, !tbaa !76
  %68 = sext i16 %67 to i32
  %69 = load i32, ptr %7, align 4, !tbaa !35
  %70 = ashr i32 %68, %69
  %71 = and i32 %70, 1
  call void @arith_encode(ptr noundef %58, ptr noundef %59, i32 noundef %71)
  br label %72

72:                                               ; preds = %57
  %73 = load i32, ptr %8, align 4, !tbaa !35
  %74 = add nsw i32 %73, 1
  store i32 %74, ptr %8, align 4, !tbaa !35
  br label %51, !llvm.loop !85

75:                                               ; preds = %51
  call void @llvm.lifetime.end.p0(i64 4, ptr %8) #3
  call void @llvm.lifetime.end.p0(i64 4, ptr %7) #3
  call void @llvm.lifetime.end.p0(i64 8, ptr %6) #3
  call void @llvm.lifetime.end.p0(i64 8, ptr %5) #3
  ret i32 1
}