; Function Attrs: nounwind uwtable
define internal noundef i32 @encode_mcu_DC_refine(ptr noundef %0, ptr noundef readonly captures(none) %1) #0 {
  %3 = getelementptr inbounds nuw i8, ptr %0, i64 496
  %4 = load ptr, ptr %3, align 8, !tbaa !27
  %5 = getelementptr inbounds nuw i8, ptr %0, i64 280
  %6 = load i32, ptr %5, align 8, !tbaa !57
  %.not = icmp eq i32 %6, 0
  br i1 %.not, label %21, label %7

7:                                                ; preds = %2
  %8 = getelementptr inbounds nuw i8, ptr %4, i64 104
  %9 = load i32, ptr %8, align 8, !tbaa !58
  %10 = icmp eq i32 %9, 0
  br i1 %10, label %11, label %18

11:                                               ; preds = %7
  %12 = getelementptr inbounds nuw i8, ptr %4, i64 108
  %13 = load i32, ptr %12, align 4, !tbaa !59
  tail call fastcc void @emit_restart(ptr noundef nonnull %0, i32 noundef %13)
  %14 = load i32, ptr %5, align 8, !tbaa !57
  %15 = load i32, ptr %12, align 4, !tbaa !59
  %16 = add nsw i32 %15, 1
  %17 = and i32 %16, 7
  store i32 %17, ptr %12, align 4, !tbaa !59
  br label %18

18:                                               ; preds = %11, %7
  %19 = phi i32 [ %14, %11 ], [ %9, %7 ]
  %20 = add i32 %19, -1
  store i32 %20, ptr %8, align 8, !tbaa !58
  br label %21

21:                                               ; preds = %18, %2
  %22 = getelementptr inbounds nuw i8, ptr %4, i64 368
  %23 = getelementptr inbounds nuw i8, ptr %0, i64 424
  %24 = load i32, ptr %23, align 8, !tbaa !76
  %25 = getelementptr inbounds nuw i8, ptr %0, i64 368
  %26 = load i32, ptr %25, align 8, !tbaa !72
  %27 = icmp sgt i32 %26, 0
  br i1 %27, label %.lr.ph, label %._crit_edge

.lr.ph:                                           ; preds = %21, %.lr.ph
  %indvars.iv = phi i64 [ %indvars.iv.next, %.lr.ph ], [ 0, %21 ]
  %28 = getelementptr inbounds nuw ptr, ptr %1, i64 %indvars.iv
  %29 = load ptr, ptr %28, align 8, !tbaa !73
  %30 = load i16, ptr %29, align 2, !tbaa !75
  %31 = sext i16 %30 to i32
  %32 = lshr i32 %31, %24
  %33 = and i32 %32, 1
  tail call fastcc void @arith_encode(ptr noundef nonnull %0, ptr noundef nonnull %22, i32 noundef %33)
  %indvars.iv.next = add nuw nsw i64 %indvars.iv, 1
  %34 = load i32, ptr %25, align 8, !tbaa !72
  %35 = sext i32 %34 to i64
  %36 = icmp slt i64 %indvars.iv.next, %35
  br i1 %36, label %.lr.ph, label %._crit_edge, !llvm.loop !84

._crit_edge:                                      ; preds = %.lr.ph, %21
  ret i32 1
}